libv8.so.0 libv8-0 #MINVER#
 _ZN2v810ScriptData10PreCompileEPKci@Base 1.3.9
 _ZN2v810ScriptData3NewEPji@Base 1.3.9
 _ZN2v810ScriptDataD0Ev@Base 1.3.9
 _ZN2v810ScriptDataD1Ev@Base 1.3.9
 _ZN2v810TypeSwitch3NewENS_6HandleINS_16FunctionTemplateEEE@Base 1.3.9
 _ZN2v810TypeSwitch3NewEiPNS_6HandleINS_16FunctionTemplateEEE@Base 1.3.9
 _ZN2v810TypeSwitch5matchENS_6HandleINS_5ValueEEE@Base 1.3.9
 _ZN2v811HandleScope12CreateHandleEPNS_8internal6ObjectE@Base 1.3.9
 _ZN2v811HandleScope15NumberOfHandlesEv@Base 1.3.9
 _ZN2v811HandleScope8RawCloseEPPNS_8internal6ObjectE@Base 1.3.9
 _ZN2v811HandleScopeC1Ev@Base 1.3.9
 _ZN2v811HandleScopeC2Ev@Base 1.3.9
 _ZN2v811HandleScopeD1Ev@Base 1.3.9
 _ZN2v811HandleScopeD2Ev@Base 1.3.9
 _ZN2v814ObjectTemplate11NewInstanceEv@Base 1.3.9
 _ZN2v814ObjectTemplate11SetAccessorENS_6HandleINS_6StringEEEPFNS1_INS_5ValueEEENS_5LocalIS2_EERKNS_12AccessorInfoEEPFvS7_NS6_IS4_EESA_ES5_NS_13AccessControlENS_17PropertyAttributeE@Base 1.3.9
 _ZN2v814ObjectTemplate18InternalFieldCountEv@Base 1.3.9
 _ZN2v814ObjectTemplate18MarkAsUndetectableEv@Base 1.3.9
 _ZN2v814ObjectTemplate21SetInternalFieldCountEi@Base 1.3.9
 _ZN2v814ObjectTemplate23SetAccessCheckCallbacksEPFbNS_5LocalINS_6ObjectEEENS1_INS_5ValueEEENS_10AccessTypeES5_EPFbS3_jS6_S5_ENS_6HandleIS4_EEb@Base 1.3.9
 _ZN2v814ObjectTemplate23SetNamedPropertyHandlerEPFNS_6HandleINS_5ValueEEENS_5LocalINS_6StringEEERKNS_12AccessorInfoEEPFS3_S6_NS4_IS2_EES9_EPFNS1_INS_7BooleanEEES6_S9_ESI_PFNS1_INS_5ArrayEEES9_ES3_@Base 1.3.9
 _ZN2v814ObjectTemplate24SetCallAsFunctionHandlerEPFNS_6HandleINS_5ValueEEERKNS_9ArgumentsEES3_@Base 1.3.9
 _ZN2v814ObjectTemplate25SetIndexedPropertyHandlerEPFNS_6HandleINS_5ValueEEEjRKNS_12AccessorInfoEEPFS3_jNS_5LocalIS2_EES6_EPFNS1_INS_7BooleanEEEjS6_ESG_PFNS1_INS_5ArrayEEES6_ES3_@Base 1.3.9
 _ZN2v814ObjectTemplate3NewENS_6HandleINS_16FunctionTemplateEEE@Base 1.3.9
 _ZN2v814ObjectTemplate3NewEv@Base 1.3.9
 _ZN2v814ThrowExceptionENS_6HandleINS_5ValueEEE@Base 1.3.9
 _ZN2v816FunctionTemplate11GetFunctionEv@Base 1.3.9
 _ZN2v816FunctionTemplate11HasInstanceENS_6HandleINS_5ValueEEE@Base 1.3.9
 _ZN2v816FunctionTemplate12SetClassNameENS_6HandleINS_6StringEEE@Base 1.3.9
 _ZN2v816FunctionTemplate14SetCallHandlerEPFNS_6HandleINS_5ValueEEERKNS_9ArgumentsEES3_@Base 1.3.9
 _ZN2v816FunctionTemplate16InstanceTemplateEv@Base 1.3.9
 _ZN2v816FunctionTemplate17PrototypeTemplateEv@Base 1.3.9
 _ZN2v816FunctionTemplate18SetHiddenPrototypeEb@Base 1.3.9
 _ZN2v816FunctionTemplate27AddInstancePropertyAccessorENS_6HandleINS_6StringEEEPFNS1_INS_5ValueEEENS_5LocalIS2_EERKNS_12AccessorInfoEEPFvS7_NS6_IS4_EESA_ES5_NS_13AccessControlENS_17PropertyAttributeE@Base 1.3.9
 _ZN2v816FunctionTemplate31SetNamedInstancePropertyHandlerEPFNS_6HandleINS_5ValueEEENS_5LocalINS_6StringEEERKNS_12AccessorInfoEEPFS3_S6_NS4_IS2_EES9_EPFNS1_INS_7BooleanEEES6_S9_ESI_PFNS1_INS_5ArrayEEES9_ES3_@Base 1.3.9
 _ZN2v816FunctionTemplate32SetInstanceCallAsFunctionHandlerEPFNS_6HandleINS_5ValueEEERKNS_9ArgumentsEES3_@Base 1.3.9
 _ZN2v816FunctionTemplate33SetIndexedInstancePropertyHandlerEPFNS_6HandleINS_5ValueEEEjRKNS_12AccessorInfoEEPFS3_jNS_5LocalIS2_EES6_EPFNS1_INS_7BooleanEEEjS6_ESG_PFNS1_INS_5ArrayEEES6_ES3_@Base 1.3.9
 _ZN2v816FunctionTemplate3NewEPFNS_6HandleINS_5ValueEEERKNS_9ArgumentsEES3_NS1_INS_9SignatureEEE@Base 1.3.9
 _ZN2v816FunctionTemplate7InheritENS_6HandleIS0_EE@Base 1.3.9
 _ZN2v817RegisterExtensionEPNS_9ExtensionE@Base 1.3.9
 _ZN2v819ResourceConstraintsC1Ev@Base 1.3.9
 _ZN2v819ResourceConstraintsC2Ev@Base 1.3.9
 _ZN2v82V810GetVersionEv@Base 1.3.9
 _ZN2v82V810InitializeEv@Base 1.3.9
 _ZN2v82V811GetLogLinesEiPci@Base 1.3.9
 _ZN2v82V812IsGlobalWeakEPPNS_8internal6ObjectE@Base 1.3.9
 _ZN2v82V813DisposeGlobalEPPNS_8internal6ObjectE@Base 1.3.9
 _ZN2v82V813PauseProfilerEv@Base 1.3.9
 _ZN2v82V814AddObjectGroupEPNS_10PersistentINS_5ValueEEEj@Base 1.3.9
 _ZN2v82V814ResumeProfilerEv@Base 1.3.9
 _ZN2v82V815PauseProfilerExEi@Base 1.3.9
 _ZN2v82V816IdleNotificationEb@Base 1.3.9
 _ZN2v82V816IsProfilerPausedEv@Base 1.3.9
 _ZN2v82V816ResumeProfilerExEi@Base 1.3.9
 _ZN2v82V817IsGlobalNearDeathEPPNS_8internal6ObjectE@Base 1.3.9
 _ZN2v82V818AddMessageListenerEPFvNS_6HandleINS_7MessageEEENS1_INS_5ValueEEEES5_@Base 1.3.9
 _ZN2v82V818GetCurrentThreadIdEv@Base 1.3.9
 _ZN2v82V818GlobalizeReferenceEPPNS_8internal6ObjectE@Base 1.3.9
 _ZN2v82V818SetCounterFunctionEPFPiPKcE@Base 1.3.9
 _ZN2v82V818SetFlagsFromStringEPKci@Base 1.3.9
 _ZN2v82V818TerminateExecutionEi@Base 1.3.9
 _ZN2v82V818TerminateExecutionEv@Base 1.3.9
 _ZN2v82V820SetFatalErrorHandlerEPFvPKcS2_E@Base 1.3.9
 _ZN2v82V821LowMemoryNotificationEv@Base 1.3.9
 _ZN2v82V822RemoveMessageListenersEPFvNS_6HandleINS_7MessageEEENS1_INS_5ValueEEEE@Base 1.3.9
 _ZN2v82V823SetFlagsFromCommandLineEPiPPcb@Base 1.3.9
 _ZN2v82V824EnableSlidingStateWindowEv@Base 1.3.9
 _ZN2v82V824GetActiveProfilerModulesEv@Base 1.3.9
 _ZN2v82V826IgnoreOutOfMemoryExceptionEv@Base 1.3.9
 _ZN2v82V826SetCreateHistogramFunctionEPFPvPKciijE@Base 1.3.9
 _ZN2v82V827SetGlobalGCEpilogueCallbackEPFvvE@Base 1.3.9
 _ZN2v82V827SetGlobalGCPrologueCallbackEPFvvE@Base 1.3.9
 _ZN2v82V829SetAddHistogramSampleFunctionEPFvPviE@Base 1.3.9
 _ZN2v82V836SetFailedAccessCheckCallbackFunctionEPFvNS_5LocalINS_6ObjectEEENS_10AccessTypeENS1_INS_5ValueEEEE@Base 1.3.9
 _ZN2v82V837AdjustAmountOfExternalAllocatedMemoryEi@Base 1.3.9
 _ZN2v82V86IsDeadEv@Base 1.3.9
 _ZN2v82V87DisposeEv@Base 1.3.9
 _ZN2v82V88MakeWeakEPPNS_8internal6ObjectEPvPFvNS_10PersistentINS_5ValueEEES5_E@Base 1.3.9
 _ZN2v82V89ClearWeakEPPNS_8internal6ObjectE@Base 1.3.9
 _ZN2v84Date3NewEd@Base 1.3.9
 _ZN2v84Date9CheckCastEPNS_5ValueE@Base 1.3.9
 _ZN2v84NullEv@Base 1.3.9
 _ZN2v84TrueEv@Base 1.3.9
 _ZN2v85Array14CloneElementAtEj@Base 1.3.9
 _ZN2v85Array3NewEi@Base 1.3.9
 _ZN2v85Array9CheckCastEPNS_5ValueE@Base 1.3.9
 _ZN2v85Debug10DebugBreakEv@Base 1.3.9
 _ZN2v85Debug11EnableAgentEPKci@Base 1.3.9
 _ZN2v85Debug11SendCommandEPKtiPNS0_10ClientDataE@Base 1.3.9
 _ZN2v85Debug17SetMessageHandlerEPFvPKtiPNS0_10ClientDataEEb@Base 1.3.9
 _ZN2v85Debug18SetMessageHandler2EPFvRKNS0_7MessageEE@Base 1.3.9
 _ZN2v85Debug21SetDebugEventListenerENS_6HandleINS_6ObjectEEENS1_INS_5ValueEEE@Base 1.3.9
 _ZN2v85Debug21SetDebugEventListenerEPFvNS_10DebugEventENS_6HandleINS_6ObjectEEES4_NS2_INS_5ValueEEEES6_@Base 1.3.9
 _ZN2v85Debug22SetHostDispatchHandlerEPFvvEi@Base 1.3.9
 _ZN2v85Debug4CallENS_6HandleINS_8FunctionEEENS1_INS_5ValueEEE@Base 1.3.9
 _ZN2v85Debug7MessageD0Ev@Base 1.3.9
 _ZN2v85Debug7MessageD1Ev@Base 1.3.9
 _ZN2v85Debug9GetMirrorENS_6HandleINS_5ValueEEE@Base 1.3.9
 _ZN2v85FalseEv@Base 1.3.9
 _ZN2v86Locker14StopPreemptionEv@Base 1.3.9
 _ZN2v86Locker15StartPreemptionEi@Base 1.3.9
 _ZN2v86Locker7active_E@Base 1.3.9
 _ZN2v86Locker8IsLockedEv@Base 1.3.9
 _ZN2v86LockerC1Ev@Base 1.3.9
 _ZN2v86LockerC2Ev@Base 1.3.9
 _ZN2v86LockerD1Ev@Base 1.3.9
 _ZN2v86LockerD2Ev@Base 1.3.9
 _ZN2v86Number3NewEd@Base 1.3.9
 _ZN2v86Number9CheckCastEPNS_5ValueE@Base 1.3.9
 _ZN2v86Object11ForceDeleteENS_6HandleINS_5ValueEEE@Base 1.3.9
 _ZN2v86Object12GetPrototypeEv@Base 1.3.9
 _ZN2v86Object14GetHiddenValueENS_6HandleINS_6StringEEE@Base 1.3.9
 _ZN2v86Object14SetHiddenValueENS_6HandleINS_6StringEEENS1_INS_5ValueEEE@Base 1.3.9
 _ZN2v86Object15GetIdentityHashEv@Base 1.3.9
 _ZN2v86Object16GetPropertyNamesEv@Base 1.3.9
 _ZN2v86Object16SetInternalFieldEiNS_6HandleINS_5ValueEEE@Base 1.3.9
 _ZN2v86Object17DeleteHiddenValueENS_6HandleINS_6StringEEE@Base 1.3.9
 _ZN2v86Object17TurnOnAccessCheckEv@Base 1.3.9
 _ZN2v86Object18InternalFieldCountEv@Base 1.3.9
 _ZN2v86Object19ObjectProtoToStringEv@Base 1.3.9
 _ZN2v86Object20HasRealNamedPropertyENS_6HandleINS_6StringEEE@Base 1.3.9
 _ZN2v86Object22HasRealIndexedPropertyEj@Base 1.3.9
 _ZN2v86Object23CheckedGetInternalFieldEi@Base 1.3.9
 _ZN2v86Object25HasNamedLookupInterceptorEv@Base 1.3.9
 _ZN2v86Object25SetPointerInInternalFieldEiPv@Base 1.3.9
 _ZN2v86Object27HasIndexedLookupInterceptorEv@Base 1.3.9
 _ZN2v86Object28FindInstanceInPrototypeChainENS_6HandleINS_16FunctionTemplateEEE@Base 1.3.9
 _ZN2v86Object28HasRealNamedCallbackPropertyENS_6HandleINS_6StringEEE@Base 1.3.9
 _ZN2v86Object31SetIndexedPropertiesToPixelDataEPhi@Base 1.3.9
 _ZN2v86Object36GetRealNamedPropertyInPrototypeChainENS_6HandleINS_6StringEEE@Base 1.3.9
 _ZN2v86Object3GetENS_6HandleINS_5ValueEEE@Base 1.3.9
 _ZN2v86Object3HasENS_6HandleINS_6StringEEE@Base 1.3.9
 _ZN2v86Object3HasEj@Base 1.3.9
 _ZN2v86Object3NewEv@Base 1.3.9
 _ZN2v86Object3SetENS_6HandleINS_5ValueEEES3_NS_17PropertyAttributeE@Base 1.3.9
 _ZN2v86Object5CloneEv@Base 1.3.9
 _ZN2v86Object6DeleteENS_6HandleINS_6StringEEE@Base 1.3.9
 _ZN2v86Object6DeleteEj@Base 1.3.9
 _ZN2v86Object8ForceSetENS_6HandleINS_5ValueEEES3_NS_17PropertyAttributeE@Base 1.3.9
 _ZN2v86Object9CheckCastEPNS_5ValueE@Base 1.3.9
 _ZN2v86Script2IdEv@Base 1.3.9
 _ZN2v86Script3NewENS_6HandleINS_6StringEEENS1_INS_5ValueEEE@Base 1.3.9
 _ZN2v86Script3NewENS_6HandleINS_6StringEEEPNS_12ScriptOriginEPNS_10ScriptDataE@Base 1.3.9
 _ZN2v86Script3RunEv@Base 1.3.9
 _ZN2v86Script7CompileENS_6HandleINS_6StringEEENS1_INS_5ValueEEE@Base 1.3.9
 _ZN2v86Script7CompileENS_6HandleINS_6StringEEEPNS_12ScriptOriginEPNS_10ScriptDataE@Base 1.3.9
 _ZN2v86Script7SetDataENS_6HandleINS_5ValueEEE@Base 1.3.9
 _ZN2v86String10AsciiValueC1ENS_6HandleINS_5ValueEEE@Base 1.3.9
 _ZN2v86String10AsciiValueC2ENS_6HandleINS_5ValueEEE@Base 1.3.9
 _ZN2v86String10AsciiValueD1Ev@Base 1.3.9
 _ZN2v86String10AsciiValueD2Ev@Base 1.3.9
 _ZN2v86String11NewExternalEPNS0_22ExternalStringResourceE@Base 1.3.9
 _ZN2v86String11NewExternalEPNS0_27ExternalAsciiStringResourceE@Base 1.3.9
 _ZN2v86String12MakeExternalEPNS0_22ExternalStringResourceE@Base 1.3.9
 _ZN2v86String12MakeExternalEPNS0_27ExternalAsciiStringResourceE@Base 1.3.9
 _ZN2v86String15CanMakeExternalEv@Base 1.3.9
 _ZN2v86String15NewUndetectableEPKci@Base 1.3.9
 _ZN2v86String15NewUndetectableEPKti@Base 1.3.9
 _ZN2v86String3NewEPKci@Base 1.3.9
 _ZN2v86String3NewEPKti@Base 1.3.9
 _ZN2v86String5EmptyEv@Base 1.3.9
 _ZN2v86String5ValueC1ENS_6HandleINS_5ValueEEE@Base 1.3.9
 _ZN2v86String5ValueC2ENS_6HandleINS_5ValueEEE@Base 1.3.9
 _ZN2v86String5ValueD1Ev@Base 1.3.9
 _ZN2v86String5ValueD2Ev@Base 1.3.9
 _ZN2v86String9CheckCastEPNS_5ValueE@Base 1.3.9
 _ZN2v86String9NewSymbolEPKci@Base 1.3.9
 _ZN2v86String9Utf8ValueC1ENS_6HandleINS_5ValueEEE@Base 1.3.9
 _ZN2v86String9Utf8ValueC2ENS_6HandleINS_5ValueEEE@Base 1.3.9
 _ZN2v86String9Utf8ValueD1Ev@Base 1.3.9
 _ZN2v86String9Utf8ValueD2Ev@Base 1.3.9
 _ZN2v87Context10GetCallingEv@Base 1.3.9
 _ZN2v87Context10GetCurrentEv@Base 1.3.9
 _ZN2v87Context10GetEnteredEv@Base 1.3.9
 _ZN2v87Context12DetachGlobalEv@Base 1.3.9
 _ZN2v87Context16GetSecurityTokenEv@Base 1.3.9
 _ZN2v87Context16SetSecurityTokenENS_6HandleINS_5ValueEEE@Base 1.3.9
 _ZN2v87Context23HasOutOfMemoryExceptionEv@Base 1.3.9
 _ZN2v87Context23UseDefaultSecurityTokenEv@Base 1.3.9
 _ZN2v87Context3NewEPNS_22ExtensionConfigurationENS_6HandleINS_14ObjectTemplateEEENS3_INS_5ValueEEE@Base 1.3.9
 _ZN2v87Context4ExitEv@Base 1.3.9
 _ZN2v87Context5EnterEv@Base 1.3.9
 _ZN2v87Context6GlobalEv@Base 1.3.9
 _ZN2v87Context7GetDataEv@Base 1.3.9
 _ZN2v87Context7SetDataENS_6HandleINS_5ValueEEE@Base 1.3.9
 _ZN2v87Context9InContextEv@Base 1.3.9
 _ZN2v87Integer3NewEi@Base 1.3.9
 _ZN2v87Integer9CheckCastEPNS_5ValueE@Base 1.3.9
 _ZN2v87Message22PrintCurrentStackTraceEP8_IO_FILE@Base 1.3.9
 _ZN2v88External10FullUnwrapENS_6HandleINS_5ValueEEE@Base 1.3.9
 _ZN2v88External3NewEPv@Base 1.3.9
 _ZN2v88External4WrapEPv@Base 1.3.9
 _ZN2v88External9CheckCastEPNS_5ValueE@Base 1.3.9
 _ZN2v88Function4CallENS_6HandleINS_6ObjectEEEiPNS1_INS_5ValueEEE@Base 1.3.9
 _ZN2v88Function7SetNameENS_6HandleINS_6StringEEE@Base 1.3.9
 _ZN2v88Function9CheckCastEPNS_5ValueE@Base 1.3.9
 _ZN2v88internal9Internals10kProxyTypeE@Base 1.3.9
 _ZN2v88internal9Internals13kJSObjectTypeE@Base 1.3.9
 _ZN2v88internal9Internals19kFirstNonstringTypeE@Base 1.3.9
 _ZN2v88Template3SetENS_6HandleINS_6StringEEENS1_INS_4DataEEENS_17PropertyAttributeE@Base 1.3.9
 _ZN2v88TryCatch10SetVerboseEb@Base 1.3.9
 _ZN2v88TryCatch17SetCaptureMessageEb@Base 1.3.9
 _ZN2v88TryCatch5ResetEv@Base 1.3.9
 _ZN2v88TryCatchC1Ev@Base 1.3.9
 _ZN2v88TryCatchC2Ev@Base 1.3.9
 _ZN2v88TryCatchD1Ev@Base 1.3.9
 _ZN2v88TryCatchD2Ev@Base 1.3.9
 _ZN2v88UnlockerC1Ev@Base 1.3.9
 _ZN2v88UnlockerC2Ev@Base 1.3.9
 _ZN2v88UnlockerD1Ev@Base 1.3.9
 _ZN2v88UnlockerD2Ev@Base 1.3.9
 _ZN2v89Exception10RangeErrorENS_6HandleINS_6StringEEE@Base 1.3.9
 _ZN2v89Exception11SyntaxErrorENS_6HandleINS_6StringEEE@Base 1.3.9
 _ZN2v89Exception14ReferenceErrorENS_6HandleINS_6StringEEE@Base 1.3.9
 _ZN2v89Exception5ErrorENS_6HandleINS_6StringEEE@Base 1.3.9
 _ZN2v89Exception9TypeErrorENS_6HandleINS_6StringEEE@Base 1.3.9
 _ZN2v89Extension17GetNativeFunctionENS_6HandleINS_6StringEEE@Base 1.3.9
 _ZN2v89ExtensionC1EPKcS2_iPS2_@Base 1.3.9
 _ZN2v89ExtensionC2EPKcS2_iPS2_@Base 1.3.9
 _ZN2v89ExtensionD0Ev@Base 1.3.9
 _ZN2v89ExtensionD1Ev@Base 1.3.9
 _ZN2v89Signature3NewENS_6HandleINS_16FunctionTemplateEEEiPS3_@Base 1.3.9
 _ZN2v89UndefinedEv@Base 1.3.9
 _ZNK2v84Date11NumberValueEv@Base 1.3.9
 _ZNK2v85Array6LengthEv@Base 1.3.9
 _ZNK2v85Int325ValueEv@Base 1.3.9
 _ZNK2v85Value10Int32ValueEv@Base 1.3.9
 _ZNK2v85Value10IsExternalEv@Base 1.3.9
 _ZNK2v85Value10IsFunctionEv@Base 1.3.9
 _ZNK2v85Value11IsUndefinedEv@Base 1.3.9
 _ZNK2v85Value11NumberValueEv@Base 1.3.9
 _ZNK2v85Value11Uint32ValueEv@Base 1.3.9
 _ZNK2v85Value12BooleanValueEv@Base 1.3.9
 _ZNK2v85Value12FullIsStringEv@Base 1.3.9
 _ZNK2v85Value12IntegerValueEv@Base 1.3.9
 _ZNK2v85Value12StrictEqualsENS_6HandleIS0_EE@Base 1.3.9
 _ZNK2v85Value12ToArrayIndexEv@Base 1.3.9
 _ZNK2v85Value14ToDetailStringEv@Base 1.3.9
 _ZNK2v85Value6EqualsENS_6HandleIS0_EE@Base 1.3.9
 _ZNK2v85Value6IsDateEv@Base 1.3.9
 _ZNK2v85Value6IsNullEv@Base 1.3.9
 _ZNK2v85Value6IsTrueEv@Base 1.3.9
 _ZNK2v85Value7IsArrayEv@Base 1.3.9
 _ZNK2v85Value7IsFalseEv@Base 1.3.9
 _ZNK2v85Value7IsInt32Ev@Base 1.3.9
 _ZNK2v85Value7ToInt32Ev@Base 1.3.9
 _ZNK2v85Value8IsNumberEv@Base 1.3.9
 _ZNK2v85Value8IsObjectEv@Base 1.3.9
 _ZNK2v85Value8ToNumberEv@Base 1.3.9
 _ZNK2v85Value8ToObjectEv@Base 1.3.9
 _ZNK2v85Value8ToStringEv@Base 1.3.9
 _ZNK2v85Value8ToUint32Ev@Base 1.3.9
 _ZNK2v85Value9IsBooleanEv@Base 1.3.9
 _ZNK2v85Value9ToBooleanEv@Base 1.3.9
 _ZNK2v85Value9ToIntegerEv@Base 1.3.9
 _ZNK2v86Number5ValueEv@Base 1.3.9
 _ZNK2v86String10IsExternalEv@Base 1.3.9
 _ZNK2v86String10Utf8LengthEv@Base 1.3.9
 _ZNK2v86String10WriteAsciiEPcii@Base 1.3.9
 _ZNK2v86String15IsExternalAsciiEv@Base 1.3.9
 _ZNK2v86String28VerifyExternalStringResourceEPNS0_22ExternalStringResourceE@Base 1.3.9
 _ZNK2v86String30GetExternalAsciiStringResourceEv@Base 1.3.9
 _ZNK2v86String5WriteEPtii@Base 1.3.9
 _ZNK2v86String6LengthEv@Base 1.3.9
 _ZNK2v86String9WriteUtf8EPci@Base 1.3.9
 _ZNK2v87Boolean5ValueEv@Base 1.3.9
 _ZNK2v87Integer5ValueEv@Base 1.3.9
 _ZNK2v87Message12GetEndColumnEv@Base 1.3.9
 _ZNK2v87Message13GetLineNumberEv@Base 1.3.9
 _ZNK2v87Message13GetScriptDataEv@Base 1.3.9
 _ZNK2v87Message13GetSourceLineEv@Base 1.3.9
 _ZNK2v87Message14GetEndPositionEv@Base 1.3.9
 _ZNK2v87Message14GetStartColumnEv@Base 1.3.9
 _ZNK2v87Message16GetStartPositionEv@Base 1.3.9
 _ZNK2v87Message21GetScriptResourceNameEv@Base 1.3.9
 _ZNK2v87Message3GetEv@Base 1.3.9
 _ZNK2v88External5ValueEv@Base 1.3.9
 _ZNK2v88Function11NewInstanceEiPNS_6HandleINS_5ValueEEE@Base 1.3.9
 _ZNK2v88Function11NewInstanceEv@Base 1.3.9
 _ZNK2v88Function7GetNameEv@Base 1.3.9
 _ZNK2v88TryCatch10StackTraceEv@Base 1.3.9
 _ZNK2v88TryCatch11CanContinueEv@Base 1.3.9
 _ZNK2v88TryCatch7MessageEv@Base 1.3.9
 _ZNK2v88TryCatch9ExceptionEv@Base 1.3.9
 _ZNK2v88TryCatch9HasCaughtEv@Base 1.3.9
 _ZTVN2v810ScriptDataE@Base 1.3.9
 _ZTVN2v85Debug7MessageE@Base 1.3.9
 _ZTVN2v89ExtensionE@Base 1.3.9
